target datalayout = "e-m:e-p270:32:32-p271:32:32-p272:64:64-i64:64-i128:128-f80:128-n8:16:32:64-S128"
target triple = "x86_64-pc-linux-gnu"

@ShenandoahGCHeuristics = external global ptr, align 8
@.str.13 = private unnamed_addr constant [49 x i8] c"Unknown -XX:ShenandoahGCHeuristics option (null)\00", align 1
@.str.14 = private unnamed_addr constant [11 x i8] c"aggressive\00", align 1
@.str.15 = private unnamed_addr constant [7 x i8] c"static\00", align 1
@.str.16 = private unnamed_addr constant [9 x i8] c"adaptive\00", align 1
@.str.17 = private unnamed_addr constant [8 x i8] c"compact\00", align 1
@.str.18 = private unnamed_addr constant [42 x i8] c"Unknown -XX:ShenandoahGCHeuristics option\00", align 1
@_ZN8Universe14_collectedHeapE = external global ptr, align 8

; Function Attrs: mustprogress nounwind uwtable
define linkonce_odr hidden noundef ptr @_ZN8Universe4heapEv() #1 comdat align 2 {
  %1 = load ptr, ptr @_ZN8Universe14_collectedHeapE, align 8
  ret ptr %1
}

; Function Attrs: mustprogress nounwind uwtable
define linkonce_odr hidden noundef ptr @_ZN13CollectedHeap10named_heapI14ShenandoahHeapEEPT_NS_4NameE(i32 noundef %0) #1 comdat align 2 {
  %2 = alloca i32, align 4
  %3 = alloca ptr, align 8
  store i32 %0, ptr %2, align 4
  %4 = call noundef ptr @_ZN8Universe4heapEv()
  store ptr %4, ptr %3, align 8
  %5 = load ptr, ptr %3, align 8
  ret ptr %5
}

; Function Attrs: mustprogress nounwind uwtable
define linkonce_odr hidden noundef ptr @_ZN14ShenandoahHeap4heapEv() #1 comdat align 2 {
  %1 = call noundef ptr @_ZN13CollectedHeap10named_heapI14ShenandoahHeapEEPT_NS_4NameE(i32 noundef 6)
  ret ptr %1
}

; Function Attrs: mustprogress nounwind uwtable
define hidden noundef ptr @_ZNK16ShenandoahIUMode21initialize_heuristicsEv(ptr noundef nonnull align 8 dereferenceable(8) %0) unnamed_addr #1 align 2 {
  %2 = alloca i64, align 8
  %3 = alloca i8, align 1
  %4 = alloca i64, align 8
  %5 = alloca i8, align 1
  %6 = alloca i64, align 8
  %7 = alloca i8, align 1
  %8 = alloca i64, align 8
  %9 = alloca i8, align 1
  %10 = alloca i64, align 8
  %11 = alloca i64, align 8
  %12 = alloca i64, align 8
  %13 = alloca i64, align 8
  %14 = alloca ptr, align 8
  %15 = alloca ptr, align 8
  %16 = alloca ptr, align 8
  store ptr %0, ptr %15, align 8
  %17 = load ptr, ptr @ShenandoahGCHeuristics, align 8
  %18 = icmp eq ptr %17, null
  br i1 %18, label %19, label %20

19:                                               ; preds = %1
  call void @_Z29vm_exit_during_initializationPKcS0_(ptr noundef @.str.13, ptr noundef null)
  br label %20

20:                                               ; preds = %19, %1
  %21 = call noundef ptr @_ZN14ShenandoahHeap4heapEv()
  store ptr %21, ptr %16, align 8
  %22 = load ptr, ptr @ShenandoahGCHeuristics, align 8
  %23 = call i32 @strcmp(ptr noundef %22, ptr noundef @.str.14) #5
  %24 = icmp eq i32 %23, 0
  br i1 %24, label %25, label %36

25:                                               ; preds = %20
  store i64 200, ptr %10, align 8
  %26 = load i64, ptr %10, align 8
  store i64 %26, ptr %8, align 8
  store i8 5, ptr %9, align 1
  %27 = load i64, ptr %8, align 8
  %28 = load i8, ptr %9, align 1
  %29 = call noundef ptr @_Z12AllocateHeapm8MEMFLAGSN17AllocFailStrategy13AllocFailEnumE(i64 noundef %27, i8 noundef zeroext %28, i32 noundef 0) #6
  %30 = load ptr, ptr %16, align 8
  %31 = icmp eq ptr %30, null
  br i1 %31, label %34, label %32

32:                                               ; preds = %25
  %33 = getelementptr inbounds i8, ptr %30, i64 104
  br label %34

34:                                               ; preds = %32, %25
  %35 = phi ptr [ %33, %32 ], [ null, %25 ]
  call void @_ZN30ShenandoahAggressiveHeuristicsC1EP19ShenandoahSpaceInfo(ptr noundef nonnull align 8 dereferenceable(193) %29, ptr noundef %35)
  store ptr %29, ptr %14, align 8
  br label %85

36:                                               ; preds = %20
  %37 = load ptr, ptr @ShenandoahGCHeuristics, align 8
  %38 = call i32 @strcmp(ptr noundef %37, ptr noundef @.str.15) #5
  %39 = icmp eq i32 %38, 0
  br i1 %39, label %40, label %51

40:                                               ; preds = %36
  store i64 200, ptr %11, align 8
  %41 = load i64, ptr %11, align 8
  store i64 %41, ptr %6, align 8
  store i8 5, ptr %7, align 1
  %42 = load i64, ptr %6, align 8
  %43 = load i8, ptr %7, align 1
  %44 = call noundef ptr @_Z12AllocateHeapm8MEMFLAGSN17AllocFailStrategy13AllocFailEnumE(i64 noundef %42, i8 noundef zeroext %43, i32 noundef 0) #6
  %45 = load ptr, ptr %16, align 8
  %46 = icmp eq ptr %45, null
  br i1 %46, label %49, label %47

47:                                               ; preds = %40
  %48 = getelementptr inbounds i8, ptr %45, i64 104
  br label %49

49:                                               ; preds = %47, %40
  %50 = phi ptr [ %48, %47 ], [ null, %40 ]
  call void @_ZN26ShenandoahStaticHeuristicsC1EP19ShenandoahSpaceInfo(ptr noundef nonnull align 8 dereferenceable(193) %44, ptr noundef %50)
  store ptr %44, ptr %14, align 8
  br label %85

51:                                               ; preds = %36
  %52 = load ptr, ptr @ShenandoahGCHeuristics, align 8
  %53 = call i32 @strcmp(ptr noundef %52, ptr noundef @.str.16) #5
  %54 = icmp eq i32 %53, 0
  br i1 %54, label %55, label %66

55:                                               ; preds = %51
  store i64 464, ptr %12, align 8
  %56 = load i64, ptr %12, align 8
  store i64 %56, ptr %4, align 8
  store i8 5, ptr %5, align 1
  %57 = load i64, ptr %4, align 8
  %58 = load i8, ptr %5, align 1
  %59 = call noundef ptr @_Z12AllocateHeapm8MEMFLAGSN17AllocFailStrategy13AllocFailEnumE(i64 noundef %57, i8 noundef zeroext %58, i32 noundef 0) #6
  %60 = load ptr, ptr %16, align 8
  %61 = icmp eq ptr %60, null
  br i1 %61, label %64, label %62

62:                                               ; preds = %55
  %63 = getelementptr inbounds i8, ptr %60, i64 104
  br label %64

64:                                               ; preds = %62, %55
  %65 = phi ptr [ %63, %62 ], [ null, %55 ]
  call void @_ZN28ShenandoahAdaptiveHeuristicsC1EP19ShenandoahSpaceInfo(ptr noundef nonnull align 8 dereferenceable(464) %59, ptr noundef %65)
  store ptr %59, ptr %14, align 8
  br label %85

66:                                               ; preds = %51
  %67 = load ptr, ptr @ShenandoahGCHeuristics, align 8
  %68 = call i32 @strcmp(ptr noundef %67, ptr noundef @.str.17) #5
  %69 = icmp eq i32 %68, 0
  br i1 %69, label %70, label %81

70:                                               ; preds = %66
  store i64 200, ptr %13, align 8
  %71 = load i64, ptr %13, align 8
  store i64 %71, ptr %2, align 8
  store i8 5, ptr %3, align 1
  %72 = load i64, ptr %2, align 8
  %73 = load i8, ptr %3, align 1
  %74 = call noundef ptr @_Z12AllocateHeapm8MEMFLAGSN17AllocFailStrategy13AllocFailEnumE(i64 noundef %72, i8 noundef zeroext %73, i32 noundef 0) #6
  %75 = load ptr, ptr %16, align 8
  %76 = icmp eq ptr %75, null
  br i1 %76, label %79, label %77

77:                                               ; preds = %70
  %78 = getelementptr inbounds i8, ptr %75, i64 104
  br label %79

79:                                               ; preds = %77, %70
  %80 = phi ptr [ %78, %77 ], [ null, %70 ]
  call void @_ZN27ShenandoahCompactHeuristicsC1EP19ShenandoahSpaceInfo(ptr noundef nonnull align 8 dereferenceable(193) %74, ptr noundef %80)
  store ptr %74, ptr %14, align 8
  br label %85

81:                                               ; preds = %66
  br label %82

82:                                               ; preds = %81
  br label %83

83:                                               ; preds = %82
  br label %84

84:                                               ; preds = %83
  call void @_Z29vm_exit_during_initializationPKcS0_(ptr noundef @.str.18, ptr noundef null)
  store ptr null, ptr %14, align 8
  br label %85

85:                                               ; preds = %84, %79, %64, %49, %34
  %86 = load ptr, ptr %14, align 8
  ret ptr %86
}