; Function Attrs: mustprogress nounwind uwtable
define hidden noundef ptr @_ZNK16ShenandoahIUMode21initialize_heuristicsEv(ptr nocapture nonnull readnone align 8 %0) unnamed_addr #0 align 2 {
  %2 = load ptr, ptr @ShenandoahGCHeuristics, align 8
  %3 = icmp eq ptr %2, null
  br i1 %3, label %4, label %5

4:                                                ; preds = %1
  tail call void @_Z29vm_exit_during_initializationPKcS0_(ptr noundef nonnull @.str.13, ptr noundef null) #5
  %.pre = load ptr, ptr @ShenandoahGCHeuristics, align 8
  br label %5

5:                                                ; preds = %4, %1
  %6 = phi ptr [ %.pre, %4 ], [ %2, %1 ]
  %7 = load ptr, ptr @_ZN8Universe14_collectedHeapE, align 8
  %8 = tail call i32 @strcmp(ptr noundef nonnull dereferenceable(1) %6, ptr noundef nonnull dereferenceable(11) @.str.14) #6
  %9 = icmp eq i32 %8, 0
  br i1 %9, label %10, label %14

10:                                               ; preds = %5
  %11 = tail call noundef ptr @_Z12AllocateHeapm8MEMFLAGSN17AllocFailStrategy13AllocFailEnumE(i64 noundef 200, i8 noundef zeroext 5, i32 noundef 0) #5
  %12 = icmp eq ptr %7, null
  %13 = getelementptr inbounds i8, ptr %7, i64 104
  %spec.select = select i1 %12, ptr null, ptr %13
  tail call void @_ZN30ShenandoahAggressiveHeuristicsC1EP19ShenandoahSpaceInfo(ptr noundef nonnull align 8 dereferenceable(193) %11, ptr noundef %spec.select) #5
  br label %36

14:                                               ; preds = %5
  %15 = tail call i32 @strcmp(ptr noundef nonnull dereferenceable(1) %6, ptr noundef nonnull dereferenceable(7) @.str.15) #6
  %16 = icmp eq i32 %15, 0
  br i1 %16, label %17, label %21

17:                                               ; preds = %14
  %18 = tail call noundef ptr @_Z12AllocateHeapm8MEMFLAGSN17AllocFailStrategy13AllocFailEnumE(i64 noundef 200, i8 noundef zeroext 5, i32 noundef 0) #5
  %19 = icmp eq ptr %7, null
  %20 = getelementptr inbounds i8, ptr %7, i64 104
  %spec.select1 = select i1 %19, ptr null, ptr %20
  tail call void @_ZN26ShenandoahStaticHeuristicsC1EP19ShenandoahSpaceInfo(ptr noundef nonnull align 8 dereferenceable(193) %18, ptr noundef %spec.select1) #5
  br label %36

21:                                               ; preds = %14
  %22 = tail call i32 @strcmp(ptr noundef nonnull dereferenceable(1) %6, ptr noundef nonnull dereferenceable(9) @.str.16) #6
  %23 = icmp eq i32 %22, 0
  br i1 %23, label %24, label %28

24:                                               ; preds = %21
  %25 = tail call noundef ptr @_Z12AllocateHeapm8MEMFLAGSN17AllocFailStrategy13AllocFailEnumE(i64 noundef 464, i8 noundef zeroext 5, i32 noundef 0) #5
  %26 = icmp eq ptr %7, null
  %27 = getelementptr inbounds i8, ptr %7, i64 104
  %spec.select2 = select i1 %26, ptr null, ptr %27
  tail call void @_ZN28ShenandoahAdaptiveHeuristicsC1EP19ShenandoahSpaceInfo(ptr noundef nonnull align 8 dereferenceable(464) %25, ptr noundef %spec.select2) #5
  br label %36

28:                                               ; preds = %21
  %29 = tail call i32 @strcmp(ptr noundef nonnull dereferenceable(1) %6, ptr noundef nonnull dereferenceable(8) @.str.17) #6
  %30 = icmp eq i32 %29, 0
  br i1 %30, label %31, label %35

31:                                               ; preds = %28
  %32 = tail call noundef ptr @_Z12AllocateHeapm8MEMFLAGSN17AllocFailStrategy13AllocFailEnumE(i64 noundef 200, i8 noundef zeroext 5, i32 noundef 0) #5
  %33 = icmp eq ptr %7, null
  %34 = getelementptr inbounds i8, ptr %7, i64 104
  %spec.select3 = select i1 %33, ptr null, ptr %34
  tail call void @_ZN27ShenandoahCompactHeuristicsC1EP19ShenandoahSpaceInfo(ptr noundef nonnull align 8 dereferenceable(193) %32, ptr noundef %spec.select3) #5
  br label %36

35:                                               ; preds = %28
  tail call void @_Z29vm_exit_during_initializationPKcS0_(ptr noundef nonnull @.str.18, ptr noundef null) #5
  br label %36

36:                                               ; preds = %35, %31, %24, %17, %10
  %.0 = phi ptr [ %11, %10 ], [ %18, %17 ], [ %25, %24 ], [ %32, %31 ], [ null, %35 ]
  ret ptr %.0
}